target datalayout = "e-m:e-p270:32:32-p271:32:32-p272:64:64-i64:64-i128:128-f80:128-n8:16:32:64-S128"
target triple = "x86_64-pc-linux-gnu"

%struct.boxf = type { %struct.pointf_s, %struct.pointf_s }
%struct.pointf_s = type { double, double }
%struct.GVJ_s = type { ptr, ptr, ptr, ptr, ptr, ptr, i32, ptr, ptr, ptr, ptr, i64, i64, ptr, i32, %struct.gvplugin_active_render_s, %struct.gvplugin_active_device_s, %struct.gvplugin_active_loadimage_t, ptr, %struct.pointf_s, i8, ptr, i32, ptr, i8, ptr, i32, i32, i32, %struct.point, %struct.point, %struct.point, %struct.point, %struct.point, i32, %struct.boxf, %struct.pointf_s, %struct.boxf, %struct.boxf, %struct.pointf_s, %struct.pointf_s, double, i32, %struct.pointf_s, %struct.boxf, %struct.pointf_s, %struct.pointf_s, i32, i32, %struct.box, %struct.box, %struct.pointf_s, %struct.pointf_s, %struct.pointf_s, i8, i8, i8, i8, i8, i8, %struct.pointf_s, %struct.pointf_s, ptr, ptr, ptr, ptr, ptr, ptr, i64, ptr }
%struct.gvplugin_active_render_s = type { ptr, i32, ptr, ptr }
%struct.gvplugin_active_device_s = type { ptr, i32, ptr, ptr }
%struct.gvplugin_active_loadimage_t = type { ptr, i32, ptr }
%struct.point = type { i32, i32 }
%struct.box = type { %struct.point, %struct.point }
%struct.usershape_s = type { %struct.dtlink_s_, ptr, i32, i8, i8, ptr, i32, ptr, double, double, double, double, i32, ptr, i64, ptr }
%struct.dtlink_s_ = type { ptr, %union.anon }
%union.anon = type { ptr }

; Function Attrs: nounwind uwtable
define internal ptr @cairo_loadimage(ptr noundef %0, ptr noundef %1) #0 {
  %3 = alloca ptr, align 8
  %4 = alloca ptr, align 8
  %5 = alloca ptr, align 8
  %6 = alloca ptr, align 8
  %7 = alloca i32, align 4
  store ptr %0, ptr %4, align 8, !tbaa !3
  store ptr %1, ptr %5, align 8, !tbaa !8
  call void @llvm.lifetime.start.p0(i64 8, ptr %6) #5
  store ptr null, ptr %6, align 8, !tbaa !36
  %8 = load ptr, ptr %5, align 8, !tbaa !8
  %9 = getelementptr inbounds nuw %struct.usershape_s, ptr %8, i32 0, i32 13
  %10 = load ptr, ptr %9, align 8, !tbaa !47
  %11 = icmp ne ptr %10, null
  br i1 %11, label %12, label %31

12:                                               ; preds = %2
  %13 = load ptr, ptr %5, align 8, !tbaa !8
  %14 = getelementptr inbounds nuw %struct.usershape_s, ptr %13, i32 0, i32 15
  %15 = load ptr, ptr %14, align 8, !tbaa !48
  %16 = icmp eq ptr %15, @cairo_freeimage
  br i1 %16, label %17, label %21

17:                                               ; preds = %12
  %18 = load ptr, ptr %5, align 8, !tbaa !8
  %19 = getelementptr inbounds nuw %struct.usershape_s, ptr %18, i32 0, i32 13
  %20 = load ptr, ptr %19, align 8, !tbaa !47
  store ptr %20, ptr %6, align 8, !tbaa !36
  br label %30

21:                                               ; preds = %12
  %22 = load ptr, ptr %5, align 8, !tbaa !8
  %23 = getelementptr inbounds nuw %struct.usershape_s, ptr %22, i32 0, i32 15
  %24 = load ptr, ptr %23, align 8, !tbaa !48
  %25 = load ptr, ptr %5, align 8, !tbaa !8
  call void %24(ptr noundef %25)
  %26 = load ptr, ptr %5, align 8, !tbaa !8
  %27 = getelementptr inbounds nuw %struct.usershape_s, ptr %26, i32 0, i32 15
  store ptr null, ptr %27, align 8, !tbaa !48
  %28 = load ptr, ptr %5, align 8, !tbaa !8
  %29 = getelementptr inbounds nuw %struct.usershape_s, ptr %28, i32 0, i32 13
  store ptr null, ptr %29, align 8, !tbaa !47
  br label %30

30:                                               ; preds = %21, %17
  br label %31

31:                                               ; preds = %30, %2
  %32 = load ptr, ptr %6, align 8, !tbaa !36
  %33 = icmp ne ptr %32, null
  br i1 %33, label %61, label %34

34:                                               ; preds = %31
  %35 = load ptr, ptr %5, align 8, !tbaa !8
  %36 = call zeroext i1 @gvusershape_file_access(ptr noundef %35)
  br i1 %36, label %38, label %37

37:                                               ; preds = %34
  store ptr null, ptr %3, align 8
  store i32 1, ptr %7, align 4
  br label %63

38:                                               ; preds = %34
  %39 = load ptr, ptr %5, align 8, !tbaa !8
  %40 = getelementptr inbounds nuw %struct.usershape_s, ptr %39, i32 0, i32 6
  %41 = load i32, ptr %40, align 8, !tbaa !49
  switch i32 %41, label %49 [
    i32 3, label %42
  ]

42:                                               ; preds = %38
  %43 = load ptr, ptr %5, align 8, !tbaa !8
  %44 = getelementptr inbounds nuw %struct.usershape_s, ptr %43, i32 0, i32 5
  %45 = load ptr, ptr %44, align 8, !tbaa !50
  %46 = call ptr @cairo_image_surface_create_from_png_stream(ptr noundef @reader, ptr noundef %45)
  store ptr %46, ptr %6, align 8, !tbaa !36
  %47 = load ptr, ptr %6, align 8, !tbaa !36
  %48 = call ptr @cairo_surface_reference(ptr noundef %47)
  br label %50

49:                                               ; preds = %38
  store ptr null, ptr %6, align 8, !tbaa !36
  br label %50

50:                                               ; preds = %49, %42
  %51 = load ptr, ptr %6, align 8, !tbaa !36
  %52 = icmp ne ptr %51, null
  br i1 %52, label %53, label %59

53:                                               ; preds = %50
  %54 = load ptr, ptr %6, align 8, !tbaa !36
  %55 = load ptr, ptr %5, align 8, !tbaa !8
  %56 = getelementptr inbounds nuw %struct.usershape_s, ptr %55, i32 0, i32 13
  store ptr %54, ptr %56, align 8, !tbaa !47
  %57 = load ptr, ptr %5, align 8, !tbaa !8
  %58 = getelementptr inbounds nuw %struct.usershape_s, ptr %57, i32 0, i32 15
  store ptr @cairo_freeimage, ptr %58, align 8, !tbaa !48
  br label %59

59:                                               ; preds = %53, %50
  %60 = load ptr, ptr %5, align 8, !tbaa !8
  call void @gvusershape_file_release(ptr noundef %60)
  br label %61

61:                                               ; preds = %59, %31
  %62 = load ptr, ptr %6, align 8, !tbaa !36
  store ptr %62, ptr %3, align 8
  store i32 1, ptr %7, align 4
  br label %63

63:                                               ; preds = %61, %37
  call void @llvm.lifetime.end.p0(i64 8, ptr %6) #5
  %64 = load ptr, ptr %3, align 8
  ret ptr %64
}

; Function Attrs: nounwind uwtable
define internal void @pango_loadimage_cairo(ptr noundef %0, ptr noundef %1, ptr noundef byval(%struct.boxf) align 8 %2, i1 noundef zeroext %3) #0 {
  %5 = alloca ptr, align 8
  %6 = alloca ptr, align 8
  %7 = alloca i8, align 1
  %8 = alloca ptr, align 8
  %9 = alloca ptr, align 8
  store ptr %0, ptr %5, align 8, !tbaa !3
  store ptr %1, ptr %6, align 8, !tbaa !8
  %10 = zext i1 %3 to i8
  store i8 %10, ptr %7, align 1, !tbaa !10
  call void @llvm.lifetime.start.p0(i64 8, ptr %8) #5
  %11 = load ptr, ptr %5, align 8, !tbaa !3
  %12 = getelementptr inbounds nuw %struct.GVJ_s, ptr %11, i32 0, i32 23
  %13 = load ptr, ptr %12, align 8, !tbaa !12
  store ptr %13, ptr %8, align 8, !tbaa !34
  call void @llvm.lifetime.start.p0(i64 8, ptr %9) #5
  %14 = load ptr, ptr %5, align 8, !tbaa !3
  %15 = load ptr, ptr %6, align 8, !tbaa !8
  %16 = call ptr @cairo_loadimage(ptr noundef %14, ptr noundef %15)
  store ptr %16, ptr %9, align 8, !tbaa !36
  %17 = load ptr, ptr %9, align 8, !tbaa !36
  %18 = icmp ne ptr %17, null
  br i1 %18, label %19, label %56

19:                                               ; preds = %4
  %20 = load ptr, ptr %8, align 8, !tbaa !34
  call void @cairo_save(ptr noundef %20)
  %21 = load ptr, ptr %8, align 8, !tbaa !34
  %22 = getelementptr inbounds nuw %struct.boxf, ptr %2, i32 0, i32 0
  %23 = getelementptr inbounds nuw %struct.pointf_s, ptr %22, i32 0, i32 0
  %24 = load double, ptr %23, align 8, !tbaa !38
  %25 = getelementptr inbounds nuw %struct.boxf, ptr %2, i32 0, i32 1
  %26 = getelementptr inbounds nuw %struct.pointf_s, ptr %25, i32 0, i32 1
  %27 = load double, ptr %26, align 8, !tbaa !39
  %28 = fneg double %27
  call void @cairo_translate(ptr noundef %21, double noundef %24, double noundef %28)
  %29 = load ptr, ptr %8, align 8, !tbaa !34
  %30 = getelementptr inbounds nuw %struct.boxf, ptr %2, i32 0, i32 1
  %31 = getelementptr inbounds nuw %struct.pointf_s, ptr %30, i32 0, i32 0
  %32 = load double, ptr %31, align 8, !tbaa !40
  %33 = getelementptr inbounds nuw %struct.boxf, ptr %2, i32 0, i32 0
  %34 = getelementptr inbounds nuw %struct.pointf_s, ptr %33, i32 0, i32 0
  %35 = load double, ptr %34, align 8, !tbaa !38
  %36 = fsub double %32, %35
  %37 = load ptr, ptr %6, align 8, !tbaa !8
  %38 = getelementptr inbounds nuw %struct.usershape_s, ptr %37, i32 0, i32 10
  %39 = load double, ptr %38, align 8, !tbaa !41
  %40 = fdiv double %36, %39
  %41 = getelementptr inbounds nuw %struct.boxf, ptr %2, i32 0, i32 1
  %42 = getelementptr inbounds nuw %struct.pointf_s, ptr %41, i32 0, i32 1
  %43 = load double, ptr %42, align 8, !tbaa !39
  %44 = getelementptr inbounds nuw %struct.boxf, ptr %2, i32 0, i32 0
  %45 = getelementptr inbounds nuw %struct.pointf_s, ptr %44, i32 0, i32 1
  %46 = load double, ptr %45, align 8, !tbaa !45
  %47 = fsub double %43, %46
  %48 = load ptr, ptr %6, align 8, !tbaa !8
  %49 = getelementptr inbounds nuw %struct.usershape_s, ptr %48, i32 0, i32 11
  %50 = load double, ptr %49, align 8, !tbaa !46
  %51 = fdiv double %47, %50
  call void @cairo_scale(ptr noundef %29, double noundef %40, double noundef %51)
  %52 = load ptr, ptr %8, align 8, !tbaa !34
  %53 = load ptr, ptr %9, align 8, !tbaa !36
  call void @cairo_set_source_surface(ptr noundef %52, ptr noundef %53, double noundef 0.000000e+00, double noundef 0.000000e+00)
  %54 = load ptr, ptr %8, align 8, !tbaa !34
  call void @cairo_paint(ptr noundef %54)
  %55 = load ptr, ptr %8, align 8, !tbaa !34
  call void @cairo_restore(ptr noundef %55)
  br label %56

56:                                               ; preds = %19, %4
  call void @llvm.lifetime.end.p0(i64 8, ptr %9) #5
  call void @llvm.lifetime.end.p0(i64 8, ptr %8) #5
  ret void
}