; Function Attrs: nounwind uwtable
define internal void @pango_loadimage_cairo(ptr noundef readonly captures(none) %0, ptr noundef %1, ptr noundef readonly byval(%struct.boxf) align 8 captures(none) %2, i1 zeroext %3) #0 {
  %5 = getelementptr inbounds nuw i8, ptr %0, i64 256
  %6 = load ptr, ptr %5, align 8, !tbaa !3
  %7 = getelementptr inbounds nuw i8, ptr %1, i64 96
  %8 = load ptr, ptr %7, align 8, !tbaa !30
  %.not.i = icmp eq ptr %8, null
  br i1 %.not.i, label %14, label %9

9:                                                ; preds = %4
  %10 = getelementptr inbounds nuw i8, ptr %1, i64 112
  %11 = load ptr, ptr %10, align 8, !tbaa !34
  %12 = icmp eq ptr %11, @cairo_freeimage
  br i1 %12, label %cairo_loadimage.exit.thread15, label %13

13:                                               ; preds = %9
  tail call void %11(ptr noundef nonnull %1) #4
  store ptr null, ptr %10, align 8, !tbaa !34
  store ptr null, ptr %7, align 8, !tbaa !30
  br label %14

14:                                               ; preds = %13, %4
  %15 = tail call zeroext i1 @gvusershape_file_access(ptr noundef nonnull %1) #4
  br i1 %15, label %16, label %cairo_loadimage.exit.thread

16:                                               ; preds = %14
  %17 = getelementptr inbounds nuw i8, ptr %1, i64 40
  %18 = load i32, ptr %17, align 8, !tbaa !35
  %cond.i = icmp eq i32 %18, 3
  br i1 %cond.i, label %19, label %cairo_loadimage.exit.thread19

19:                                               ; preds = %16
  %20 = getelementptr inbounds nuw i8, ptr %1, i64 32
  %21 = load ptr, ptr %20, align 8, !tbaa !36
  %22 = tail call ptr @cairo_image_surface_create_from_png_stream(ptr noundef nonnull @reader, ptr noundef %21) #4
  %23 = tail call ptr @cairo_surface_reference(ptr noundef %22) #4
  %.not23.i = icmp eq ptr %22, null
  br i1 %.not23.i, label %cairo_loadimage.exit.thread19, label %cairo_loadimage.exit

cairo_loadimage.exit.thread19:                    ; preds = %19, %16
  tail call void @gvusershape_file_release(ptr noundef nonnull %1) #4
  br label %cairo_loadimage.exit.thread

cairo_loadimage.exit:                             ; preds = %19
  store ptr %22, ptr %7, align 8, !tbaa !30
  %24 = getelementptr inbounds nuw i8, ptr %1, i64 112
  store ptr @cairo_freeimage, ptr %24, align 8, !tbaa !34
  tail call void @gvusershape_file_release(ptr noundef nonnull %1) #4
  br label %cairo_loadimage.exit.thread15

cairo_loadimage.exit.thread15:                    ; preds = %9, %cairo_loadimage.exit
  %.019.i18 = phi ptr [ %22, %cairo_loadimage.exit ], [ %8, %9 ]
  tail call void @cairo_save(ptr noundef %6) #4
  %25 = load double, ptr %2, align 8, !tbaa !37
  %26 = getelementptr inbounds nuw i8, ptr %2, i64 16
  %27 = getelementptr inbounds nuw i8, ptr %2, i64 24
  %28 = load double, ptr %27, align 8, !tbaa !38
  %29 = fneg double %28
  tail call void @cairo_translate(ptr noundef %6, double noundef %25, double noundef %29) #4
  %30 = load double, ptr %26, align 8, !tbaa !39
  %31 = fsub double %30, %25
  %32 = getelementptr inbounds nuw i8, ptr %1, i64 72
  %33 = load double, ptr %32, align 8, !tbaa !40
  %34 = fdiv double %31, %33
  %35 = getelementptr inbounds nuw i8, ptr %2, i64 8
  %36 = load double, ptr %35, align 8, !tbaa !41
  %37 = fsub double %28, %36
  %38 = getelementptr inbounds nuw i8, ptr %1, i64 80
  %39 = load double, ptr %38, align 8, !tbaa !42
  %40 = fdiv double %37, %39
  tail call void @cairo_scale(ptr noundef %6, double noundef %34, double noundef %40) #4
  tail call void @cairo_set_source_surface(ptr noundef %6, ptr noundef nonnull %.019.i18, double noundef 0.000000e+00, double noundef 0.000000e+00) #4
  tail call void @cairo_paint(ptr noundef %6) #4
  tail call void @cairo_restore(ptr noundef %6) #4
  br label %cairo_loadimage.exit.thread

cairo_loadimage.exit.thread:                      ; preds = %14, %cairo_loadimage.exit.thread19, %cairo_loadimage.exit.thread15
  ret void
}